target datalayout = "e-m:e-p270:32:32-p271:32:32-p272:64:64-i64:64-i128:128-f80:128-n8:16:32:64-S128"
target triple = "x86_64-pc-linux-gnu"

%struct.Abc_Ntk_t_ = type { i32, i32, ptr, ptr, ptr, ptr, ptr, ptr, ptr, ptr, ptr, ptr, ptr, [11 x i32], i32, i32, i32, i32, ptr, i32, ptr, ptr, i32, i32, i32, double, i32, %struct.Vec_Int_t_, ptr, ptr, ptr, ptr, ptr, float, i32, ptr, ptr, ptr, ptr, ptr, ptr, ptr, ptr, ptr, ptr, ptr, ptr, ptr, ptr, ptr, ptr, ptr, ptr, ptr, ptr, ptr }
%struct.Vec_Int_t_ = type { i32, i32, ptr }
%struct.Vec_Ptr_t_ = type { i32, i32, ptr }
%struct.Lpk_Man_t_ = type { ptr, ptr, ptr, i32, i32, i32, i32, [10000 x %struct.Lpk_Cut_t_], [10000 x i32], ptr, ptr, ptr, ptr, i32, i32, i32, [100 x i32], [100 x i32], ptr, ptr, ptr, ptr, ptr, ptr, ptr, [32 x i32], [5 x [16 x ptr]], [8 x ptr], ptr, i32, i32, i32, i32, i32, i32, i32, i32, i32, i32, i32, i32, i32, [17 x i32], i64, i64, i64, i64, i64, i64, i64, i64, i64, i64, i64, i64, i64 }
%struct.Lpk_Cut_t_ = type { i32, [2 x i32], float, i32, [100 x i32], [100 x i32] }
%struct.Vec_Vec_t_ = type { i32, i32, ptr }

; Function Attrs: nounwind uwtable
define internal ptr @Abc_NtkObj(ptr noundef %0, i32 noundef %1) #0 {
  %3 = alloca ptr, align 8
  %4 = alloca i32, align 4
  store ptr %0, ptr %3, align 8
  store i32 %1, ptr %4, align 4
  %5 = load ptr, ptr %3, align 8
  %6 = getelementptr inbounds %struct.Abc_Ntk_t_, ptr %5, i32 0, i32 5
  %7 = load ptr, ptr %6, align 8
  %8 = load i32, ptr %4, align 4
  %9 = call ptr @Vec_PtrEntry(ptr noundef %7, i32 noundef %8)
  ret ptr %9
}

; Function Attrs: nounwind uwtable
define internal ptr @Vec_PtrEntry(ptr noundef %0, i32 noundef %1) #0 {
  %3 = alloca ptr, align 8
  %4 = alloca i32, align 4
  store ptr %0, ptr %3, align 8
  store i32 %1, ptr %4, align 4
  %5 = load ptr, ptr %3, align 8
  %6 = getelementptr inbounds %struct.Vec_Ptr_t_, ptr %5, i32 0, i32 2
  %7 = load ptr, ptr %6, align 8
  %8 = load i32, ptr %4, align 4
  %9 = sext i32 %8 to i64
  %10 = getelementptr inbounds ptr, ptr %7, i64 %9
  %11 = load ptr, ptr %10, align 8
  ret ptr %11
}

; Function Attrs: nounwind uwtable
define internal i32 @Vec_PtrSize(ptr noundef %0) #0 {
  %2 = alloca ptr, align 8
  store ptr %0, ptr %2, align 8
  %3 = load ptr, ptr %2, align 8
  %4 = getelementptr inbounds %struct.Vec_Ptr_t_, ptr %3, i32 0, i32 1
  %5 = load i32, ptr %4, align 4
  ret i32 %5
}

; Function Attrs: nounwind uwtable
define internal ptr @Vec_VecEntry(ptr noundef %0, i32 noundef %1) #0 {
  %3 = alloca ptr, align 8
  %4 = alloca i32, align 4
  store ptr %0, ptr %3, align 8
  store i32 %1, ptr %4, align 4
  %5 = load ptr, ptr %3, align 8
  %6 = getelementptr inbounds %struct.Vec_Vec_t_, ptr %5, i32 0, i32 2
  %7 = load ptr, ptr %6, align 8
  %8 = load i32, ptr %4, align 4
  %9 = sext i32 %8 to i64
  %10 = getelementptr inbounds ptr, ptr %7, i64 %9
  %11 = load ptr, ptr %10, align 8
  ret ptr %11
}

; Function Attrs: nounwind uwtable
define i32 @Lpk_NodeHasChanged(ptr noundef %0, i32 noundef %1) #0 {
  %3 = alloca i32, align 4
  %4 = alloca ptr, align 8
  %5 = alloca i32, align 4
  %6 = alloca ptr, align 8
  %7 = alloca ptr, align 8
  %8 = alloca ptr, align 8
  %9 = alloca i32, align 4
  store ptr %0, ptr %4, align 8
  store i32 %1, ptr %5, align 4
  %10 = load ptr, ptr %4, align 8
  %11 = getelementptr inbounds %struct.Lpk_Man_t_, ptr %10, i32 0, i32 9
  %12 = load ptr, ptr %11, align 8
  %13 = load i32, ptr %5, align 4
  %14 = call ptr @Vec_VecEntry(ptr noundef %12, i32 noundef %13)
  store ptr %14, ptr %6, align 8
  %15 = load ptr, ptr %6, align 8
  %16 = call i32 @Vec_PtrSize(ptr noundef %15)
  %17 = icmp eq i32 %16, 0
  br i1 %17, label %18, label %19

18:                                               ; preds = %2
  store i32 1, ptr %3, align 4
  br label %53

19:                                               ; preds = %2
  store i32 0, ptr %9, align 4
  br label %20

20:                                               ; preds = %49, %19
  %21 = load i32, ptr %9, align 4
  %22 = add nsw i32 %21, 1
  %23 = load ptr, ptr %6, align 8
  %24 = call i32 @Vec_PtrSize(ptr noundef %23)
  %25 = icmp slt i32 %22, %24
  br i1 %25, label %26, label %35

26:                                               ; preds = %20
  %27 = load ptr, ptr %6, align 8
  %28 = load i32, ptr %9, align 4
  %29 = call ptr @Vec_PtrEntry(ptr noundef %27, i32 noundef %28)
  store ptr %29, ptr %7, align 8
  br i1 true, label %30, label %35

30:                                               ; preds = %26
  %31 = load ptr, ptr %6, align 8
  %32 = load i32, ptr %9, align 4
  %33 = add nsw i32 %32, 1
  %34 = call ptr @Vec_PtrEntry(ptr noundef %31, i32 noundef %33)
  store ptr %34, ptr %8, align 8
  br label %35

35:                                               ; preds = %30, %26, %20
  %36 = phi i1 [ false, %26 ], [ false, %20 ], [ true, %30 ]
  br i1 %36, label %37, label %52

37:                                               ; preds = %35
  %38 = load ptr, ptr %4, align 8
  %39 = getelementptr inbounds %struct.Lpk_Man_t_, ptr %38, i32 0, i32 1
  %40 = load ptr, ptr %39, align 8
  %41 = load ptr, ptr %7, align 8
  %42 = ptrtoint ptr %41 to i64
  %43 = trunc i64 %42 to i32
  %44 = call ptr @Abc_NtkObj(ptr noundef %40, i32 noundef %43)
  store ptr %44, ptr %7, align 8
  %45 = load ptr, ptr %7, align 8
  %46 = icmp eq ptr %45, null
  br i1 %46, label %47, label %48

47:                                               ; preds = %37
  store i32 1, ptr %3, align 4
  br label %53

48:                                               ; preds = %37
  br label %49

49:                                               ; preds = %48
  %50 = load i32, ptr %9, align 4
  %51 = add nsw i32 %50, 2
  store i32 %51, ptr %9, align 4
  br label %20, !llvm.loop !11

52:                                               ; preds = %35
  store i32 0, ptr %3, align 4
  br label %53

53:                                               ; preds = %52, %47, %18
  %54 = load i32, ptr %3, align 4
  ret i32 %54
}