; Function Attrs: nofree norecurse nosync nounwind memory(read, inaccessiblemem: none) uwtable
define range(i32 0, 2) i32 @Lpk_NodeHasChanged(ptr noundef readonly captures(none) %0, i32 noundef %1) local_unnamed_addr #3 {
  %3 = getelementptr inbounds nuw i8, ptr %0, i64 8240040
  %4 = load ptr, ptr %3, align 8
  %5 = getelementptr i8, ptr %4, i64 8
  %.val18 = load ptr, ptr %5, align 8
  %6 = sext i32 %1 to i64
  %7 = getelementptr inbounds ptr, ptr %.val18, i64 %6
  %8 = load ptr, ptr %7, align 8
  %9 = getelementptr i8, ptr %8, i64 4
  %.val15 = load i32, ptr %9, align 4
  %10 = icmp eq i32 %.val15, 0
  br i1 %10, label %.critedge, label %.preheader

.preheader:                                       ; preds = %2
  %11 = icmp sgt i32 %.val15, 1
  br i1 %11, label %.lr.ph, label %.critedge

.lr.ph:                                           ; preds = %.preheader
  %12 = getelementptr i8, ptr %8, i64 8
  %.val17 = load ptr, ptr %12, align 8
  %13 = getelementptr inbounds nuw i8, ptr %0, i64 8
  %14 = load ptr, ptr %13, align 8
  %15 = getelementptr i8, ptr %14, i64 32
  %.val19 = load ptr, ptr %15, align 8
  %16 = getelementptr i8, ptr %.val19, i64 8
  %.val19.val = load ptr, ptr %16, align 8
  br label %21

17:                                               ; preds = %21
  %indvars.iv.next = add nuw nsw i64 %indvars.iv, 2
  %18 = trunc i64 %indvars.iv.next to i32
  %19 = or disjoint i32 %18, 1
  %20 = icmp slt i32 %19, %.val15
  br i1 %20, label %21, label %.critedge, !llvm.loop !11

21:                                               ; preds = %.lr.ph, %17
  %indvars.iv = phi i64 [ 0, %.lr.ph ], [ %indvars.iv.next, %17 ]
  %22 = getelementptr inbounds nuw ptr, ptr %.val17, i64 %indvars.iv
  %23 = load ptr, ptr %22, align 8
  %24 = ptrtoint ptr %23 to i64
  %sext = shl i64 %24, 32
  %25 = ashr exact i64 %sext, 29
  %26 = getelementptr inbounds i8, ptr %.val19.val, i64 %25
  %27 = load ptr, ptr %26, align 8
  %28 = icmp eq ptr %27, null
  br i1 %28, label %.critedge, label %17

.critedge:                                        ; preds = %21, %17, %.preheader, %2
  %.013 = phi i32 [ 1, %2 ], [ 0, %.preheader ], [ 1, %21 ], [ 0, %17 ]
  ret i32 %.013
}